target datalayout = "e-m:e-p270:32:32-p271:32:32-p272:64:64-i64:64-i128:128-f80:128-n8:16:32:64-S128"
target triple = "x86_64-pc-linux-gnu"

%struct.evp_md_st = type { i32, i32, i32, i64, i32, ptr, ptr, ptr, ptr, ptr, i32, i32, ptr, i32, ptr, ptr, ptr, %struct.CRYPTO_REF_COUNT, ptr, ptr, ptr, ptr, ptr, ptr, ptr, ptr, ptr, ptr, ptr, ptr, ptr, ptr, ptr }
%struct.CRYPTO_REF_COUNT = type { i32 }

; Function Attrs: inlinehint nounwind uwtable
define internal i32 @CRYPTO_DOWN_REF(ptr noundef %0, ptr noundef %1) #7 {
  %3 = alloca ptr, align 8
  %4 = alloca ptr, align 8
  %5 = alloca i32, align 4
  %6 = alloca i32, align 4
  store ptr %0, ptr %3, align 8, !tbaa !61
  store ptr %1, ptr %4, align 8, !tbaa !64
  %7 = load ptr, ptr %3, align 8, !tbaa !61
  %8 = getelementptr inbounds nuw %struct.CRYPTO_REF_COUNT, ptr %7, i32 0, i32 0
  store i32 1, ptr %5, align 4, !tbaa !8
  %9 = load i32, ptr %5, align 4
  %10 = atomicrmw sub ptr %8, i32 %9 release, align 4
  store i32 %10, ptr %6, align 4
  %11 = load i32, ptr %6, align 4, !tbaa !8
  %12 = sub nsw i32 %11, 1
  %13 = load ptr, ptr %4, align 8, !tbaa !64
  store i32 %12, ptr %13, align 4, !tbaa !8
  %14 = load ptr, ptr %4, align 8, !tbaa !64
  %15 = load i32, ptr %14, align 4, !tbaa !8
  %16 = icmp eq i32 %15, 0
  br i1 %16, label %17, label %18

17:                                               ; preds = %2
  fence acquire
  br label %18

18:                                               ; preds = %17, %2
  ret i32 1
}

; Function Attrs: nounwind uwtable
define void @EVP_MD_free(ptr noundef %0) #0 {
  %2 = alloca ptr, align 8
  %3 = alloca i32, align 4
  %4 = alloca i32, align 4
  store ptr %0, ptr %2, align 8, !tbaa !28
  call void @llvm.lifetime.start.p0(i64 4, ptr %3) #8
  %5 = load ptr, ptr %2, align 8, !tbaa !28
  %6 = icmp eq ptr %5, null
  br i1 %6, label %12, label %7

7:                                                ; preds = %1
  %8 = load ptr, ptr %2, align 8, !tbaa !28
  %9 = getelementptr inbounds nuw %struct.evp_md_st, ptr %8, i32 0, i32 4
  %10 = load i32, ptr %9, align 8, !tbaa !29
  %11 = icmp ne i32 %10, 0
  br i1 %11, label %12, label %13

12:                                               ; preds = %7, %1
  store i32 1, ptr %4, align 4
  br label %22

13:                                               ; preds = %7
  %14 = load ptr, ptr %2, align 8, !tbaa !28
  %15 = getelementptr inbounds nuw %struct.evp_md_st, ptr %14, i32 0, i32 17
  %16 = call i32 @CRYPTO_DOWN_REF(ptr noundef %15, ptr noundef %3)
  %17 = load i32, ptr %3, align 4, !tbaa !8
  %18 = icmp sgt i32 %17, 0
  br i1 %18, label %19, label %20

19:                                               ; preds = %13
  store i32 1, ptr %4, align 4
  br label %22

20:                                               ; preds = %13
  %21 = load ptr, ptr %2, align 8, !tbaa !28
  call void @evp_md_free_int(ptr noundef %21)
  store i32 0, ptr %4, align 4
  br label %22

22:                                               ; preds = %20, %19, %12
  call void @llvm.lifetime.end.p0(i64 4, ptr %3) #8
  %23 = load i32, ptr %4, align 4
  switch i32 %23, label %25 [
    i32 0, label %24
    i32 1, label %24
  ]

24:                                               ; preds = %22, %22
  ret void

25:                                               ; preds = %22
  unreachable
}

; Function Attrs: nounwind uwtable
define internal void @evp_md_free(ptr noundef %0) #0 {
  %2 = alloca ptr, align 8
  store ptr %0, ptr %2, align 8, !tbaa !61
  %3 = load ptr, ptr %2, align 8, !tbaa !61
  call void @EVP_MD_free(ptr noundef %3)
  ret void
}