; Function Attrs: nounwind uwtable
define internal void @evp_md_free(ptr noundef %0) #0 {
  %2 = icmp eq ptr %0, null
  br i1 %2, label %EVP_MD_free.exit, label %3

3:                                                ; preds = %1
  %4 = getelementptr inbounds nuw i8, ptr %0, i64 24
  %5 = load i32, ptr %4, align 8, !tbaa !24
  %.not.i = icmp eq i32 %5, 0
  br i1 %.not.i, label %6, label %EVP_MD_free.exit

6:                                                ; preds = %3
  %7 = getelementptr inbounds nuw i8, ptr %0, i64 120
  %8 = atomicrmw sub ptr %7, i32 1 release, align 4
  %9 = icmp eq i32 %8, 1
  br i1 %9, label %CRYPTO_DOWN_REF.exit.thread.i, label %CRYPTO_DOWN_REF.exit.i

CRYPTO_DOWN_REF.exit.thread.i:                    ; preds = %6
  fence acquire
  br label %11

CRYPTO_DOWN_REF.exit.i:                           ; preds = %6
  %10 = icmp sgt i32 %8, 1
  br i1 %10, label %EVP_MD_free.exit, label %11

11:                                               ; preds = %CRYPTO_DOWN_REF.exit.i, %CRYPTO_DOWN_REF.exit.thread.i
  tail call void @evp_md_free_int(ptr noundef nonnull %0) #8
  br label %EVP_MD_free.exit

EVP_MD_free.exit:                                 ; preds = %1, %3, %CRYPTO_DOWN_REF.exit.i, %11
  ret void
}